; Function Attrs: mustprogress uwtable
define void @_ZNK18ColoringRulesModel10headerDataEiN2Qt11OrientationEi(ptr dead_on_unwind noalias writable sret(%class.QVariant) align 8 %0, ptr nocapture noundef nonnull readnone align 8 dereferenceable(88) %1, i32 noundef %2, i32 noundef %3, i32 noundef %4) unnamed_addr #4 align 2 personality ptr @__gxx_personality_v0 {
  %6 = alloca %class.QString, align 8
  %7 = alloca %class.QString, align 8
  %8 = icmp ne i32 %4, 0
  %9 = icmp ne i32 %3, 1
  %or.cond = or i1 %9, %8
  br i1 %or.cond, label %10, label %12

10:                                               ; preds = %5
  tail call void @llvm.memset.p0.i64(ptr noundef nonnull align 8 dereferenceable(24) %0, i8 0, i64 24, i1 false)
  %11 = getelementptr inbounds i8, ptr %0, i64 24
  store i64 2, ptr %11, align 8
  br label %_ZN7QStringD2Ev.exit

12:                                               ; preds = %5
  switch i32 %2, label %33 [
    i32 0, label %13
    i32 1, label %23
  ]

13:                                               ; preds = %12
  call void @_ZNK11QMetaObject2trEPKcS1_i(ptr dead_on_unwind nonnull writable sret(%class.QString) align 8 %6, ptr noundef nonnull align 8 dereferenceable(56) @_ZN18ColoringRulesModel16staticMetaObjectE, ptr noundef nonnull @.str.4, ptr noundef null, i32 noundef -1)
  invoke void @_ZN8QVariantC1ERK7QString(ptr noundef nonnull align 8 dereferenceable(32) %0, ptr noundef nonnull align 8 dereferenceable(24) %6)
          to label %14 unwind label %19

14:                                               ; preds = %13
  %15 = load ptr, ptr %6, align 8
  %.not.i.i.i = icmp eq ptr %15, null
  br i1 %.not.i.i.i, label %_ZN7QStringD2Ev.exit, label %_ZN17QArrayDataPointerIDsE5derefEv.exit.i.i

_ZN17QArrayDataPointerIDsE5derefEv.exit.i.i:      ; preds = %14
  %16 = atomicrmw sub ptr %15, i32 1 seq_cst, align 4
  %.not.i.i = icmp eq i32 %16, 1
  br i1 %.not.i.i, label %17, label %_ZN7QStringD2Ev.exit

17:                                               ; preds = %_ZN17QArrayDataPointerIDsE5derefEv.exit.i.i
  %18 = load ptr, ptr %6, align 8
  call void @_ZN10QArrayData10deallocateEPS_xx(ptr noundef %18, i64 noundef 2, i64 noundef 8) #18
  br label %_ZN7QStringD2Ev.exit

19:                                               ; preds = %13
  %20 = landingpad { ptr, i32 }
          cleanup
  %21 = load ptr, ptr %6, align 8
  %.not.i.i.i7 = icmp eq ptr %21, null
  br i1 %.not.i.i.i7, label %_ZN7QStringD2Ev.exit10, label %_ZN17QArrayDataPointerIDsE5derefEv.exit.i.i8

_ZN17QArrayDataPointerIDsE5derefEv.exit.i.i8:     ; preds = %19
  %22 = atomicrmw sub ptr %21, i32 1 seq_cst, align 4
  %.not.i.i9 = icmp eq i32 %22, 1
  br i1 %.not.i.i9, label %_ZN7QStringD2Ev.exit10.sink.split, label %_ZN7QStringD2Ev.exit10

23:                                               ; preds = %12
  call void @_ZNK11QMetaObject2trEPKcS1_i(ptr dead_on_unwind nonnull writable sret(%class.QString) align 8 %7, ptr noundef nonnull align 8 dereferenceable(56) @_ZN18ColoringRulesModel16staticMetaObjectE, ptr noundef nonnull @.str.5, ptr noundef null, i32 noundef -1)
  invoke void @_ZN8QVariantC1ERK7QString(ptr noundef nonnull align 8 dereferenceable(32) %0, ptr noundef nonnull align 8 dereferenceable(24) %7)
          to label %24 unwind label %29

24:                                               ; preds = %23
  %25 = load ptr, ptr %7, align 8
  %.not.i.i.i11 = icmp eq ptr %25, null
  br i1 %.not.i.i.i11, label %_ZN7QStringD2Ev.exit, label %_ZN17QArrayDataPointerIDsE5derefEv.exit.i.i12

_ZN17QArrayDataPointerIDsE5derefEv.exit.i.i12:    ; preds = %24
  %26 = atomicrmw sub ptr %25, i32 1 seq_cst, align 4
  %.not.i.i13 = icmp eq i32 %26, 1
  br i1 %.not.i.i13, label %27, label %_ZN7QStringD2Ev.exit

27:                                               ; preds = %_ZN17QArrayDataPointerIDsE5derefEv.exit.i.i12
  %28 = load ptr, ptr %7, align 8
  call void @_ZN10QArrayData10deallocateEPS_xx(ptr noundef %28, i64 noundef 2, i64 noundef 8) #18
  br label %_ZN7QStringD2Ev.exit

29:                                               ; preds = %23
  %30 = landingpad { ptr, i32 }
          cleanup
  %31 = load ptr, ptr %7, align 8
  %.not.i.i.i15 = icmp eq ptr %31, null
  br i1 %.not.i.i.i15, label %_ZN7QStringD2Ev.exit10, label %_ZN17QArrayDataPointerIDsE5derefEv.exit.i.i16

_ZN17QArrayDataPointerIDsE5derefEv.exit.i.i16:    ; preds = %29
  %32 = atomicrmw sub ptr %31, i32 1 seq_cst, align 4
  %.not.i.i17 = icmp eq i32 %32, 1
  br i1 %.not.i.i17, label %_ZN7QStringD2Ev.exit10.sink.split, label %_ZN7QStringD2Ev.exit10

33:                                               ; preds = %12
  tail call void @llvm.memset.p0.i64(ptr noundef nonnull align 8 dereferenceable(24) %0, i8 0, i64 24, i1 false)
  %34 = getelementptr inbounds i8, ptr %0, i64 24
  store i64 2, ptr %34, align 8
  br label %_ZN7QStringD2Ev.exit

_ZN7QStringD2Ev.exit:                             ; preds = %27, %_ZN17QArrayDataPointerIDsE5derefEv.exit.i.i12, %24, %17, %_ZN17QArrayDataPointerIDsE5derefEv.exit.i.i, %14, %33, %10
  ret void

_ZN7QStringD2Ev.exit10.sink.split:                ; preds = %_ZN17QArrayDataPointerIDsE5derefEv.exit.i.i16, %_ZN17QArrayDataPointerIDsE5derefEv.exit.i.i8
  %.sink.in = phi ptr [ %6, %_ZN17QArrayDataPointerIDsE5derefEv.exit.i.i8 ], [ %7, %_ZN17QArrayDataPointerIDsE5derefEv.exit.i.i16 ]
  %.pn.ph = phi { ptr, i32 } [ %20, %_ZN17QArrayDataPointerIDsE5derefEv.exit.i.i8 ], [ %30, %_ZN17QArrayDataPointerIDsE5derefEv.exit.i.i16 ]
  %.sink = load ptr, ptr %.sink.in, align 8
  call void @_ZN10QArrayData10deallocateEPS_xx(ptr noundef %.sink, i64 noundef 2, i64 noundef 8) #18
  br label %_ZN7QStringD2Ev.exit10

_ZN7QStringD2Ev.exit10:                           ; preds = %_ZN7QStringD2Ev.exit10.sink.split, %_ZN17QArrayDataPointerIDsE5derefEv.exit.i.i16, %29, %_ZN17QArrayDataPointerIDsE5derefEv.exit.i.i8, %19
  %.pn = phi { ptr, i32 } [ %20, %19 ], [ %20, %_ZN17QArrayDataPointerIDsE5derefEv.exit.i.i8 ], [ %30, %29 ], [ %30, %_ZN17QArrayDataPointerIDsE5derefEv.exit.i.i16 ], [ %.pn.ph, %_ZN7QStringD2Ev.exit10.sink.split ]
  resume { ptr, i32 } %.pn
}